target datalayout = "e-m:e-p270:32:32-p271:32:32-p272:64:64-i64:64-i128:128-f80:128-n8:16:32:64-S128"
target triple = "x86_64-pc-linux-gnu"

%struct.timespec = type { i64, i64 }
%struct.Util_ThData_t_ = type { ptr, ptr, i32, i32, i8 }

; Function Attrs: nounwind uwtable
define ptr @Util_Thread(ptr noundef %0) #0 {
  %2 = alloca ptr, align 8
  %3 = alloca %struct.timespec, align 8
  %4 = alloca ptr, align 8
  %5 = alloca i8, align 1
  %6 = alloca i8, align 1
  store ptr %0, ptr %2, align 8, !tbaa !3
  call void @llvm.lifetime.start.p0(i64 16, ptr %3) #8
  %7 = getelementptr inbounds nuw %struct.timespec, ptr %3, i32 0, i32 0
  store i64 0, ptr %7, align 8, !tbaa !7
  %8 = getelementptr inbounds nuw %struct.timespec, ptr %3, i32 0, i32 1
  store i64 10000000, ptr %8, align 8, !tbaa !10
  call void @llvm.lifetime.start.p0(i64 8, ptr %4) #8
  %9 = load ptr, ptr %2, align 8, !tbaa !3
  store ptr %9, ptr %4, align 8, !tbaa !11
  br label %10

10:                                               ; preds = %27, %1
  br label %11

11:                                               ; preds = %10
  br label %12

12:                                               ; preds = %19, %11
  %13 = load ptr, ptr %4, align 8, !tbaa !11
  %14 = getelementptr inbounds nuw %struct.Util_ThData_t_, ptr %13, i32 0, i32 4
  %15 = load atomic i8, ptr %14 acquire, align 8
  store i8 %15, ptr %5, align 1
  %16 = load i8, ptr %5, align 1, !tbaa !13, !range !15, !noundef !16
  %17 = trunc i8 %16 to i1
  %18 = xor i1 %17, true
  br i1 %18, label %19, label %21

19:                                               ; preds = %12
  %20 = call i32 @nanosleep(ptr noundef %3, ptr noundef null)
  br label %12, !llvm.loop !17

21:                                               ; preds = %12
  %22 = load ptr, ptr %4, align 8, !tbaa !11
  %23 = getelementptr inbounds nuw %struct.Util_ThData_t_, ptr %22, i32 0, i32 0
  %24 = load ptr, ptr %23, align 8, !tbaa !19
  %25 = icmp eq ptr %24, null
  br i1 %25, label %26, label %27

26:                                               ; preds = %21
  call void @pthread_exit(ptr noundef null) #9
  unreachable

27:                                               ; preds = %21
  %28 = load ptr, ptr %4, align 8, !tbaa !11
  %29 = getelementptr inbounds nuw %struct.Util_ThData_t_, ptr %28, i32 0, i32 1
  %30 = load ptr, ptr %29, align 8, !tbaa !22
  %31 = load ptr, ptr %4, align 8, !tbaa !11
  %32 = getelementptr inbounds nuw %struct.Util_ThData_t_, ptr %31, i32 0, i32 0
  %33 = load ptr, ptr %32, align 8, !tbaa !19
  %34 = call i32 %30(ptr noundef %33)
  %35 = load ptr, ptr %4, align 8, !tbaa !11
  %36 = getelementptr inbounds nuw %struct.Util_ThData_t_, ptr %35, i32 0, i32 4
  store i8 0, ptr %6, align 1, !tbaa !13
  %37 = load i8, ptr %6, align 1
  store atomic i8 %37, ptr %36 release, align 8
  br label %10
}