; Function Attrs: noreturn nounwind uwtable
define noundef ptr @Util_Thread(ptr noundef captures(none) %0) #0 {
  %2 = alloca %struct.timespec, align 8
  call void @llvm.lifetime.start.p0(i64 16, ptr nonnull %2) #11
  store i64 0, ptr %2, align 8, !tbaa !3
  %3 = getelementptr inbounds nuw i8, ptr %2, i64 8
  store i64 10000000, ptr %3, align 8, !tbaa !8
  %4 = getelementptr inbounds nuw i8, ptr %0, i64 24
  %5 = getelementptr inbounds nuw i8, ptr %0, i64 8
  br label %6

6:                                                ; preds = %15, %1
  %7 = load atomic i8, ptr %4 acquire, align 8
  %8 = trunc i8 %7 to i1
  br i1 %8, label %._crit_edge, label %.lr.ph

.lr.ph:                                           ; preds = %6, %.lr.ph
  %9 = call i32 @nanosleep(ptr noundef nonnull %2, ptr noundef null) #11
  %10 = load atomic i8, ptr %4 acquire, align 8
  %11 = trunc i8 %10 to i1
  br i1 %11, label %._crit_edge, label %.lr.ph, !llvm.loop !9

._crit_edge:                                      ; preds = %.lr.ph, %6
  %12 = load ptr, ptr %0, align 8, !tbaa !11
  %13 = icmp eq ptr %12, null
  br i1 %13, label %14, label %15

14:                                               ; preds = %._crit_edge
  call void @pthread_exit(ptr noundef null) #12
  unreachable

15:                                               ; preds = %._crit_edge
  %16 = load ptr, ptr %5, align 8, !tbaa !15
  %17 = call i32 %16(ptr noundef nonnull %12) #11
  store atomic i8 0, ptr %4 release, align 8
  br label %6
}